target datalayout = "e-m:e-p270:32:32-p271:32:32-p272:64:64-i64:64-i128:128-f80:128-n8:16:32:64-S128"
target triple = "x86_64-pc-linux-gnu"

%struct._zend_compiler_globals = type { %struct._zend_stack, ptr, ptr, i32, ptr, ptr, ptr, ptr, i8, i8, i8, i8, i8, %struct._zend_llist, ptr, i8, i8, i8, i8, ptr, i32, i32, %struct._zend_oparray_context, %struct._zend_file_context, ptr, %struct._zend_array, ptr, i64, i8, i8, i8, ptr, ptr, %struct._zend_stack, ptr, i32, ptr, ptr, i64, i64, ptr, ptr, ptr, ptr, i32, %struct._zend_stack }
%struct._zend_llist = type { ptr, ptr, i64, i64, ptr, i8, ptr }
%struct._zend_oparray_context = type { i32, i32, i32, i32, i32, i32, i32, ptr, ptr, i8 }
%struct._zend_file_context = type { %struct._zend_declarables, ptr, i8, i8, ptr, ptr, ptr, %struct._zend_array }
%struct._zend_declarables = type { i64 }
%struct._zend_array = type { %struct._zend_refcounted_h, %union.anon.0, i32, %union.anon.1, i32, i32, i32, i32, i64, ptr }
%struct._zend_refcounted_h = type { i32, %union.anon }
%union.anon = type { i32 }
%union.anon.0 = type { i32 }
%union.anon.1 = type { ptr }
%struct._zend_stack = type { i32, i32, i32, ptr }

@compiler_globals = external global %struct._zend_compiler_globals, align 8
@.str.72 = private unnamed_addr constant [21 x i8] c"%s in %s on line %d\0A\00", align 1
@.str.73 = private unnamed_addr constant [33 x i8] c"Invalid configuration directive\0A\00", align 1
@stderr = external global ptr, align 8
@.str.74 = private unnamed_addr constant [9 x i8] c"PHP:  %s\00", align 1
@.str.75 = private unnamed_addr constant [3 x i8] c"%s\00", align 1

; Function Attrs: nounwind uwtable
define internal void @ini_error(ptr noundef %0) #0 {
  %2 = alloca ptr, align 8
  %3 = alloca ptr, align 8
  %4 = alloca i32, align 4
  %5 = alloca ptr, align 8
  store ptr %0, ptr %2, align 8
  %6 = call ptr @zend_ini_scanner_get_filename()
  store ptr %6, ptr %5, align 8
  %7 = load ptr, ptr %5, align 8
  %8 = icmp ne ptr %7, null
  br i1 %8, label %9, label %255

9:                                                ; preds = %1
  %10 = load ptr, ptr %2, align 8
  %11 = call i64 @strlen(ptr noundef %10) #13
  %12 = trunc i64 %11 to i32
  %13 = add nsw i32 128, %12
  %14 = load ptr, ptr %5, align 8
  %15 = call i64 @strlen(ptr noundef %14) #13
  %16 = trunc i64 %15 to i32
  %17 = add nsw i32 %13, %16
  store i32 %17, ptr %4, align 4
  %18 = load i32, ptr %4, align 4
  %19 = call i1 @llvm.is.constant.i32(i32 %18)
  br i1 %19, label %20, label %244

20:                                               ; preds = %9
  %21 = load i32, ptr %4, align 4
  %22 = icmp sle i32 %21, 8
  br i1 %22, label %23, label %25

23:                                               ; preds = %20
  %24 = call noalias ptr @_emalloc_8()
  br label %242

25:                                               ; preds = %20
  %26 = load i32, ptr %4, align 4
  %27 = icmp sle i32 %26, 16
  br i1 %27, label %28, label %30

28:                                               ; preds = %25
  %29 = call noalias ptr @_emalloc_16()
  br label %240

30:                                               ; preds = %25
  %31 = load i32, ptr %4, align 4
  %32 = icmp sle i32 %31, 24
  br i1 %32, label %33, label %35

33:                                               ; preds = %30
  %34 = call noalias ptr @_emalloc_24()
  br label %238

35:                                               ; preds = %30
  %36 = load i32, ptr %4, align 4
  %37 = icmp sle i32 %36, 32
  br i1 %37, label %38, label %40

38:                                               ; preds = %35
  %39 = call noalias ptr @_emalloc_32()
  br label %236

40:                                               ; preds = %35
  %41 = load i32, ptr %4, align 4
  %42 = icmp sle i32 %41, 40
  br i1 %42, label %43, label %45

43:                                               ; preds = %40
  %44 = call noalias ptr @_emalloc_40()
  br label %234

45:                                               ; preds = %40
  %46 = load i32, ptr %4, align 4
  %47 = icmp sle i32 %46, 48
  br i1 %47, label %48, label %50

48:                                               ; preds = %45
  %49 = call noalias ptr @_emalloc_48()
  br label %232

50:                                               ; preds = %45
  %51 = load i32, ptr %4, align 4
  %52 = icmp sle i32 %51, 56
  br i1 %52, label %53, label %55

53:                                               ; preds = %50
  %54 = call noalias ptr @_emalloc_56()
  br label %230

55:                                               ; preds = %50
  %56 = load i32, ptr %4, align 4
  %57 = icmp sle i32 %56, 64
  br i1 %57, label %58, label %60

58:                                               ; preds = %55
  %59 = call noalias ptr @_emalloc_64()
  br label %228

60:                                               ; preds = %55
  %61 = load i32, ptr %4, align 4
  %62 = icmp sle i32 %61, 80
  br i1 %62, label %63, label %65

63:                                               ; preds = %60
  %64 = call noalias ptr @_emalloc_80()
  br label %226

65:                                               ; preds = %60
  %66 = load i32, ptr %4, align 4
  %67 = icmp sle i32 %66, 96
  br i1 %67, label %68, label %70

68:                                               ; preds = %65
  %69 = call noalias ptr @_emalloc_96()
  br label %224

70:                                               ; preds = %65
  %71 = load i32, ptr %4, align 4
  %72 = icmp sle i32 %71, 112
  br i1 %72, label %73, label %75

73:                                               ; preds = %70
  %74 = call noalias ptr @_emalloc_112()
  br label %222

75:                                               ; preds = %70
  %76 = load i32, ptr %4, align 4
  %77 = icmp sle i32 %76, 128
  br i1 %77, label %78, label %80

78:                                               ; preds = %75
  %79 = call noalias ptr @_emalloc_128()
  br label %220

80:                                               ; preds = %75
  %81 = load i32, ptr %4, align 4
  %82 = icmp sle i32 %81, 160
  br i1 %82, label %83, label %85

83:                                               ; preds = %80
  %84 = call noalias ptr @_emalloc_160()
  br label %218

85:                                               ; preds = %80
  %86 = load i32, ptr %4, align 4
  %87 = icmp sle i32 %86, 192
  br i1 %87, label %88, label %90

88:                                               ; preds = %85
  %89 = call noalias ptr @_emalloc_192()
  br label %216

90:                                               ; preds = %85
  %91 = load i32, ptr %4, align 4
  %92 = icmp sle i32 %91, 224
  br i1 %92, label %93, label %95

93:                                               ; preds = %90
  %94 = call noalias ptr @_emalloc_224()
  br label %214

95:                                               ; preds = %90
  %96 = load i32, ptr %4, align 4
  %97 = icmp sle i32 %96, 256
  br i1 %97, label %98, label %100

98:                                               ; preds = %95
  %99 = call noalias ptr @_emalloc_256()
  br label %212

100:                                              ; preds = %95
  %101 = load i32, ptr %4, align 4
  %102 = icmp sle i32 %101, 320
  br i1 %102, label %103, label %105

103:                                              ; preds = %100
  %104 = call noalias ptr @_emalloc_320()
  br label %210

105:                                              ; preds = %100
  %106 = load i32, ptr %4, align 4
  %107 = icmp sle i32 %106, 384
  br i1 %107, label %108, label %110

108:                                              ; preds = %105
  %109 = call noalias ptr @_emalloc_384()
  br label %208

110:                                              ; preds = %105
  %111 = load i32, ptr %4, align 4
  %112 = icmp sle i32 %111, 448
  br i1 %112, label %113, label %115

113:                                              ; preds = %110
  %114 = call noalias ptr @_emalloc_448()
  br label %206

115:                                              ; preds = %110
  %116 = load i32, ptr %4, align 4
  %117 = icmp sle i32 %116, 512
  br i1 %117, label %118, label %120

118:                                              ; preds = %115
  %119 = call noalias ptr @_emalloc_512()
  br label %204

120:                                              ; preds = %115
  %121 = load i32, ptr %4, align 4
  %122 = icmp sle i32 %121, 640
  br i1 %122, label %123, label %125

123:                                              ; preds = %120
  %124 = call noalias ptr @_emalloc_640()
  br label %202

125:                                              ; preds = %120
  %126 = load i32, ptr %4, align 4
  %127 = icmp sle i32 %126, 768
  br i1 %127, label %128, label %130

128:                                              ; preds = %125
  %129 = call noalias ptr @_emalloc_768()
  br label %200

130:                                              ; preds = %125
  %131 = load i32, ptr %4, align 4
  %132 = icmp sle i32 %131, 896
  br i1 %132, label %133, label %135

133:                                              ; preds = %130
  %134 = call noalias ptr @_emalloc_896()
  br label %198

135:                                              ; preds = %130
  %136 = load i32, ptr %4, align 4
  %137 = icmp sle i32 %136, 1024
  br i1 %137, label %138, label %140

138:                                              ; preds = %135
  %139 = call noalias ptr @_emalloc_1024()
  br label %196

140:                                              ; preds = %135
  %141 = load i32, ptr %4, align 4
  %142 = icmp sle i32 %141, 1280
  br i1 %142, label %143, label %145

143:                                              ; preds = %140
  %144 = call noalias ptr @_emalloc_1280()
  br label %194

145:                                              ; preds = %140
  %146 = load i32, ptr %4, align 4
  %147 = icmp sle i32 %146, 1536
  br i1 %147, label %148, label %150

148:                                              ; preds = %145
  %149 = call noalias ptr @_emalloc_1536()
  br label %192

150:                                              ; preds = %145
  %151 = load i32, ptr %4, align 4
  %152 = icmp sle i32 %151, 1792
  br i1 %152, label %153, label %155

153:                                              ; preds = %150
  %154 = call noalias ptr @_emalloc_1792()
  br label %190

155:                                              ; preds = %150
  %156 = load i32, ptr %4, align 4
  %157 = icmp sle i32 %156, 2048
  br i1 %157, label %158, label %160

158:                                              ; preds = %155
  %159 = call noalias ptr @_emalloc_2048()
  br label %188

160:                                              ; preds = %155
  %161 = load i32, ptr %4, align 4
  %162 = icmp sle i32 %161, 2560
  br i1 %162, label %163, label %165

163:                                              ; preds = %160
  %164 = call noalias ptr @_emalloc_2560()
  br label %186

165:                                              ; preds = %160
  %166 = load i32, ptr %4, align 4
  %167 = icmp sle i32 %166, 3072
  br i1 %167, label %168, label %170

168:                                              ; preds = %165
  %169 = call noalias ptr @_emalloc_3072()
  br label %184

170:                                              ; preds = %165
  %171 = load i32, ptr %4, align 4
  %172 = sext i32 %171 to i64
  %173 = icmp ule i64 %172, 2093056
  br i1 %173, label %174, label %178

174:                                              ; preds = %170
  %175 = load i32, ptr %4, align 4
  %176 = sext i32 %175 to i64
  %177 = call noalias ptr @_emalloc_large(i64 noundef %176) #14
  br label %182

178:                                              ; preds = %170
  %179 = load i32, ptr %4, align 4
  %180 = sext i32 %179 to i64
  %181 = call noalias ptr @_emalloc_huge(i64 noundef %180) #14
  br label %182

182:                                              ; preds = %178, %174
  %183 = phi ptr [ %177, %174 ], [ %181, %178 ]
  br label %184

184:                                              ; preds = %182, %168
  %185 = phi ptr [ %169, %168 ], [ %183, %182 ]
  br label %186

186:                                              ; preds = %184, %163
  %187 = phi ptr [ %164, %163 ], [ %185, %184 ]
  br label %188

188:                                              ; preds = %186, %158
  %189 = phi ptr [ %159, %158 ], [ %187, %186 ]
  br label %190

190:                                              ; preds = %188, %153
  %191 = phi ptr [ %154, %153 ], [ %189, %188 ]
  br label %192

192:                                              ; preds = %190, %148
  %193 = phi ptr [ %149, %148 ], [ %191, %190 ]
  br label %194

194:                                              ; preds = %192, %143
  %195 = phi ptr [ %144, %143 ], [ %193, %192 ]
  br label %196

196:                                              ; preds = %194, %138
  %197 = phi ptr [ %139, %138 ], [ %195, %194 ]
  br label %198

198:                                              ; preds = %196, %133
  %199 = phi ptr [ %134, %133 ], [ %197, %196 ]
  br label %200

200:                                              ; preds = %198, %128
  %201 = phi ptr [ %129, %128 ], [ %199, %198 ]
  br label %202

202:                                              ; preds = %200, %123
  %203 = phi ptr [ %124, %123 ], [ %201, %200 ]
  br label %204

204:                                              ; preds = %202, %118
  %205 = phi ptr [ %119, %118 ], [ %203, %202 ]
  br label %206

206:                                              ; preds = %204, %113
  %207 = phi ptr [ %114, %113 ], [ %205, %204 ]
  br label %208

208:                                              ; preds = %206, %108
  %209 = phi ptr [ %109, %108 ], [ %207, %206 ]
  br label %210

210:                                              ; preds = %208, %103
  %211 = phi ptr [ %104, %103 ], [ %209, %208 ]
  br label %212

212:                                              ; preds = %210, %98
  %213 = phi ptr [ %99, %98 ], [ %211, %210 ]
  br label %214

214:                                              ; preds = %212, %93
  %215 = phi ptr [ %94, %93 ], [ %213, %212 ]
  br label %216

216:                                              ; preds = %214, %88
  %217 = phi ptr [ %89, %88 ], [ %215, %214 ]
  br label %218

218:                                              ; preds = %216, %83
  %219 = phi ptr [ %84, %83 ], [ %217, %216 ]
  br label %220

220:                                              ; preds = %218, %78
  %221 = phi ptr [ %79, %78 ], [ %219, %218 ]
  br label %222

222:                                              ; preds = %220, %73
  %223 = phi ptr [ %74, %73 ], [ %221, %220 ]
  br label %224

224:                                              ; preds = %222, %68
  %225 = phi ptr [ %69, %68 ], [ %223, %222 ]
  br label %226

226:                                              ; preds = %224, %63
  %227 = phi ptr [ %64, %63 ], [ %225, %224 ]
  br label %228

228:                                              ; preds = %226, %58
  %229 = phi ptr [ %59, %58 ], [ %227, %226 ]
  br label %230

230:                                              ; preds = %228, %53
  %231 = phi ptr [ %54, %53 ], [ %229, %228 ]
  br label %232

232:                                              ; preds = %230, %48
  %233 = phi ptr [ %49, %48 ], [ %231, %230 ]
  br label %234

234:                                              ; preds = %232, %43
  %235 = phi ptr [ %44, %43 ], [ %233, %232 ]
  br label %236

236:                                              ; preds = %234, %38
  %237 = phi ptr [ %39, %38 ], [ %235, %234 ]
  br label %238

238:                                              ; preds = %236, %33
  %239 = phi ptr [ %34, %33 ], [ %237, %236 ]
  br label %240

240:                                              ; preds = %238, %28
  %241 = phi ptr [ %29, %28 ], [ %239, %238 ]
  br label %242

242:                                              ; preds = %240, %23
  %243 = phi ptr [ %24, %23 ], [ %241, %240 ]
  br label %248

244:                                              ; preds = %9
  %245 = load i32, ptr %4, align 4
  %246 = sext i32 %245 to i64
  %247 = call noalias ptr @_emalloc(i64 noundef %246) #14
  br label %248

248:                                              ; preds = %244, %242
  %249 = phi ptr [ %243, %242 ], [ %247, %244 ]
  store ptr %249, ptr %3, align 8
  %250 = load ptr, ptr %3, align 8
  %251 = load ptr, ptr %2, align 8
  %252 = load ptr, ptr %5, align 8
  %253 = call i32 @zend_ini_scanner_get_lineno()
  %254 = call i32 (ptr, ptr, ...) @sprintf(ptr noundef %250, ptr noundef @.str.72, ptr noundef %251, ptr noundef %252, i32 noundef %253) #11
  br label %257

255:                                              ; preds = %1
  %256 = call noalias ptr @_estrdup(ptr noundef @.str.73)
  store ptr %256, ptr %3, align 8
  br label %257

257:                                              ; preds = %255, %248
  %258 = load i8, ptr getelementptr inbounds (%struct._zend_compiler_globals, ptr @compiler_globals, i32 0, i32 12), align 4
  %259 = trunc i8 %258 to i1
  br i1 %259, label %260, label %264

260:                                              ; preds = %257
  %261 = load ptr, ptr @stderr, align 8
  %262 = load ptr, ptr %3, align 8
  %263 = call i32 (ptr, ptr, ...) @fprintf(ptr noundef %261, ptr noundef @.str.74, ptr noundef %262) #11
  br label %266

264:                                              ; preds = %257
  %265 = load ptr, ptr %3, align 8
  call void (i32, ptr, ...) @zend_error(i32 noundef 2, ptr noundef @.str.75, ptr noundef %265)
  br label %266

266:                                              ; preds = %264, %260
  %267 = load ptr, ptr %3, align 8
  call void @_efree(ptr noundef %267)
  ret void
}