; Function Attrs: nounwind uwtable
define internal fastcc void @ini_error(ptr noundef %0) unnamed_addr #0 {
  %2 = tail call ptr @zend_ini_scanner_get_filename() #17
  %.not = icmp eq ptr %2, null
  br i1 %.not, label %12, label %3

3:                                                ; preds = %1
  %4 = tail call i64 @strlen(ptr noundef nonnull dereferenceable(1) %0) #19
  %5 = add i64 %4, 128
  %6 = tail call i64 @strlen(ptr noundef nonnull dereferenceable(1) %2) #19
  %7 = add i64 %5, %6
  %sext = shl i64 %7, 32
  %8 = ashr exact i64 %sext, 32
  %9 = tail call noalias ptr @_emalloc(i64 noundef %8) #18
  %10 = tail call i32 @zend_ini_scanner_get_lineno() #17
  %11 = tail call i32 (ptr, ptr, ...) @sprintf(ptr noundef nonnull dereferenceable(1) %9, ptr noundef nonnull dereferenceable(1) @.str.72, ptr noundef %0, ptr noundef nonnull %2, i32 noundef %10) #17
  br label %14

12:                                               ; preds = %1
  %13 = tail call noalias ptr @_estrdup(ptr noundef nonnull @.str.73) #17
  br label %14

14:                                               ; preds = %12, %3
  %.0 = phi ptr [ %9, %3 ], [ %13, %12 ]
  %15 = load i8, ptr getelementptr inbounds (%struct._zend_compiler_globals, ptr @compiler_globals, i64 0, i32 12), align 4
  %16 = and i8 %15, 1
  %.not46 = icmp eq i8 %16, 0
  br i1 %.not46, label %20, label %17

17:                                               ; preds = %14
  %18 = load ptr, ptr @stderr, align 8
  %19 = tail call i32 (ptr, ptr, ...) @fprintf(ptr noundef %18, ptr noundef nonnull @.str.74, ptr noundef %.0) #21
  br label %21

20:                                               ; preds = %14
  tail call void (i32, ptr, ...) @zend_error(i32 noundef 2, ptr noundef nonnull @.str.75, ptr noundef %.0) #17
  br label %21

21:                                               ; preds = %20, %17
  tail call void @_efree(ptr noundef %.0) #17
  ret void
}